target datalayout = "e-m:e-p270:32:32-p271:32:32-p272:64:64-i64:64-i128:128-f80:128-n8:16:32:64-S128"
target triple = "x86_64-pc-linux-gnu"

%union.pthread_mutex_t = type { %struct.__pthread_mutex_s }
%struct.__pthread_mutex_s = type { i32, i32, i32, i32, i32, i16, i16, %struct.__pthread_internal_list }
%struct.__pthread_internal_list = type { ptr, ptr }
%struct.slurm_step_id_msg = type { i64, i32, i32, i32 }
%struct.sockaddr_storage = type { i16, [118 x i8], i64 }
%struct.slurm_msg = type { %struct.sockaddr_storage, ptr, i32, i32, i32, i8, i32, i8, i32, ptr, ptr, i32, ptr, ptr, i16, i8, i16, i16, %struct.forward, ptr, %struct.sockaddr_storage, ptr }
%struct.forward = type { %struct.slurm_node_alias_addrs_t, i16, i16, ptr, i32, i16, i16 }
%struct.slurm_node_alias_addrs_t = type { i64, ptr, ptr, i32, ptr }
%struct.srun_node_fail_msg = type { ptr, %struct.slurm_step_id_msg }

@stepmgr_mutex = dso_local global %union.pthread_mutex_t zeroinitializer, align 8
@.str.22 = private unnamed_addr constant [29 x i8] c"%s: pthread_mutex_lock(): %m\00", align 1
@.str.23 = private unnamed_addr constant [31 x i8] c"%s: pthread_mutex_unlock(): %m\00", align 1
@job_step_ptr = external global ptr, align 8
@__func__._handle_srun_node_fail = private unnamed_addr constant [23 x i8] c"_handle_srun_node_fail\00", align 1

; Function Attrs: nounwind uwtable
define internal i32 @_handle_srun_node_fail(i32 noundef %0, ptr noundef %1, i32 noundef %2) #0 {
  %4 = alloca i32, align 4
  %5 = alloca ptr, align 8
  %6 = alloca i32, align 4
  %7 = alloca i32, align 4
  %8 = alloca %struct.slurm_msg, align 8
  %9 = alloca ptr, align 8
  %10 = alloca i32, align 4
  %11 = alloca i32, align 4
  store i32 %0, ptr %4, align 4
  store ptr %1, ptr %5, align 8
  store i32 %2, ptr %6, align 4
  call void @llvm.lifetime.start.p0(i64 4, ptr %7) #10
  call void @llvm.lifetime.start.p0(i64 424, ptr %8) #10
  call void @llvm.lifetime.start.p0(i64 8, ptr %9) #10
  %12 = load i32, ptr %4, align 4
  %13 = load i32, ptr %6, align 4
  %14 = call i32 @_handle_stepmgr_relay_msg(i32 noundef %12, i32 noundef %13, ptr noundef %8, i16 noundef zeroext 7003, i1 noundef zeroext false)
  store i32 %14, ptr %7, align 4
  %15 = icmp ne i32 %14, 0
  br i1 %15, label %16, label %17

16:                                               ; preds = %3
  br label %44

17:                                               ; preds = %3
  %18 = getelementptr inbounds nuw %struct.slurm_msg, ptr %8, i32 0, i32 13
  %19 = load ptr, ptr %18, align 8
  store ptr %19, ptr %9, align 8
  br label %20

20:                                               ; preds = %17
  call void @llvm.lifetime.start.p0(i64 4, ptr %10) #10
  %21 = call i32 @pthread_mutex_lock(ptr noundef @stepmgr_mutex) #10
  store i32 %21, ptr %10, align 4
  %22 = load i32, ptr %10, align 4
  %23 = icmp ne i32 %22, 0
  br i1 %23, label %24, label %27

24:                                               ; preds = %20
  %25 = load i32, ptr %10, align 4
  %26 = call ptr @__errno_location() #11
  store i32 %25, ptr %26, align 4
  call void (ptr, ...) @fatal_abort(ptr noundef @.str.22, ptr noundef @__func__._handle_srun_node_fail) #12
  unreachable

27:                                               ; preds = %20
  call void @llvm.lifetime.end.p0(i64 4, ptr %10) #10
  br label %28

28:                                               ; preds = %27
  br label %29

29:                                               ; preds = %28
  %30 = load ptr, ptr @job_step_ptr, align 8
  %31 = load ptr, ptr %9, align 8
  %32 = getelementptr inbounds nuw %struct.srun_node_fail_msg, ptr %31, i32 0, i32 0
  %33 = load ptr, ptr %32, align 8
  call void @srun_node_fail(ptr noundef %30, ptr noundef %33)
  br label %34

34:                                               ; preds = %29
  call void @llvm.lifetime.start.p0(i64 4, ptr %11) #10
  %35 = call i32 @pthread_mutex_unlock(ptr noundef @stepmgr_mutex) #10
  store i32 %35, ptr %11, align 4
  %36 = load i32, ptr %11, align 4
  %37 = icmp ne i32 %36, 0
  br i1 %37, label %38, label %41

38:                                               ; preds = %34
  %39 = load i32, ptr %11, align 4
  %40 = call ptr @__errno_location() #11
  store i32 %39, ptr %40, align 4
  call void (ptr, ...) @fatal_abort(ptr noundef @.str.23, ptr noundef @__func__._handle_srun_node_fail) #12
  unreachable

41:                                               ; preds = %34
  call void @llvm.lifetime.end.p0(i64 4, ptr %11) #10
  br label %42

42:                                               ; preds = %41
  br label %43

43:                                               ; preds = %42
  call void @slurm_free_msg_members(ptr noundef %8)
  br label %44

44:                                               ; preds = %43, %16
  %45 = load i32, ptr %7, align 4
  call void @llvm.lifetime.end.p0(i64 8, ptr %9) #10
  call void @llvm.lifetime.end.p0(i64 424, ptr %8) #10
  call void @llvm.lifetime.end.p0(i64 4, ptr %7) #10
  ret i32 %45
}