; Function Attrs: nounwind uwtable
define internal fastcc void @_handle_srun_node_fail(i32 noundef %0, i32 noundef %1) unnamed_addr #0 {
  %3 = alloca %struct.slurm_msg, align 8
  call void @llvm.lifetime.start.p0(i64 424, ptr nonnull %3) #13
  %4 = call fastcc i32 @_handle_stepmgr_relay_msg(i32 noundef %0, i32 noundef %1, ptr noundef %3, i16 noundef zeroext 7003, i1 noundef zeroext false)
  %.not = icmp eq i32 %4, 0
  br i1 %.not, label %5, label %18

5:                                                ; preds = %2
  %6 = getelementptr inbounds nuw i8, ptr %3, i64 200
  %7 = load ptr, ptr %6, align 8
  %8 = call i32 @pthread_mutex_lock(ptr noundef nonnull @stepmgr_mutex) #13
  %.not8 = icmp eq i32 %8, 0
  br i1 %.not8, label %11, label %9

9:                                                ; preds = %5
  %10 = tail call ptr @__errno_location() #14
  store i32 %8, ptr %10, align 4
  call void (ptr, ...) @fatal_abort(ptr noundef nonnull @.str.22, ptr noundef nonnull @__func__._handle_srun_node_fail) #15
  unreachable

11:                                               ; preds = %5
  %12 = load ptr, ptr @job_step_ptr, align 8
  %13 = load ptr, ptr %7, align 8
  call void @srun_node_fail(ptr noundef %12, ptr noundef %13) #13
  %14 = call i32 @pthread_mutex_unlock(ptr noundef nonnull @stepmgr_mutex) #13
  %.not9 = icmp eq i32 %14, 0
  br i1 %.not9, label %17, label %15

15:                                               ; preds = %11
  %16 = tail call ptr @__errno_location() #14
  store i32 %14, ptr %16, align 4
  call void (ptr, ...) @fatal_abort(ptr noundef nonnull @.str.23, ptr noundef nonnull @__func__._handle_srun_node_fail) #15
  unreachable

17:                                               ; preds = %11
  call void @slurm_free_msg_members(ptr noundef nonnull %3) #13
  br label %18

18:                                               ; preds = %2, %17
  call void @llvm.lifetime.end.p0(i64 424, ptr nonnull %3) #13
  ret void
}